target datalayout = "e-m:e-p270:32:32-p271:32:32-p272:64:64-i64:64-i128:128-f80:128-n8:16:32:64-S128"
target triple = "x86_64-pc-linux-gnu"

; Function Attrs: mustprogress uwtable
define internal void @_ZN12_GLOBAL__N_124NumbersTest_Atoenum_Test8TestBodyEv(ptr noundef nonnull align 8 dereferenceable(16) %0) unnamed_addr #6 align 2 {
  %2 = alloca ptr, align 8
  store ptr %0, ptr %2, align 8, !tbaa !470
  call void @_ZN12_GLOBAL__N_120VerifySimpleAtoiGoodIZNS_24NumbersTest_Atoenum_Test8TestBodyEvE3E01S2_EEvT0_T_(i32 noundef 0, i32 noundef 0)
  call void @_ZN12_GLOBAL__N_120VerifySimpleAtoiGoodIZNS_24NumbersTest_Atoenum_Test8TestBodyEvE3E01S2_EEvT0_T_(i32 noundef 1, i32 noundef 1)
  call void @_ZN12_GLOBAL__N_120VerifySimpleAtoiGoodIZNS_24NumbersTest_Atoenum_Test8TestBodyEvE5E_101S2_EEvT0_T_(i32 noundef -1, i32 noundef -1)
  call void @_ZN12_GLOBAL__N_120VerifySimpleAtoiGoodIZNS_24NumbersTest_Atoenum_Test8TestBodyEvE5E_101S2_EEvT0_T_(i32 noundef 0, i32 noundef 0)
  call void @_ZN12_GLOBAL__N_120VerifySimpleAtoiGoodIZNS_24NumbersTest_Atoenum_Test8TestBodyEvE5E_101S2_EEvT0_T_(i32 noundef 1, i32 noundef 1)
  call void @_ZN12_GLOBAL__N_120VerifySimpleAtoiGoodIZNS_24NumbersTest_Atoenum_Test8TestBodyEvE8E_bigintS2_EEvT0_T_(i32 noundef 0, i32 noundef 0)
  call void @_ZN12_GLOBAL__N_120VerifySimpleAtoiGoodIZNS_24NumbersTest_Atoenum_Test8TestBodyEvE8E_bigintS2_EEvT0_T_(i32 noundef 1, i32 noundef 1)
  call void @_ZN12_GLOBAL__N_120VerifySimpleAtoiGoodIZNS_24NumbersTest_Atoenum_Test8TestBodyEvE8E_bigintS2_EEvT0_T_(i32 noundef 2147483647, i32 noundef 2147483647)
  call void @_ZN12_GLOBAL__N_120VerifySimpleAtoiGoodIZNS_24NumbersTest_Atoenum_Test8TestBodyEvE9E_fullintS2_EEvT0_T_(i32 noundef 0, i32 noundef 0)
  call void @_ZN12_GLOBAL__N_120VerifySimpleAtoiGoodIZNS_24NumbersTest_Atoenum_Test8TestBodyEvE9E_fullintS2_EEvT0_T_(i32 noundef 1, i32 noundef 1)
  call void @_ZN12_GLOBAL__N_120VerifySimpleAtoiGoodIZNS_24NumbersTest_Atoenum_Test8TestBodyEvE9E_fullintS2_EEvT0_T_(i32 noundef 2147483647, i32 noundef 2147483647)
  call void @_ZN12_GLOBAL__N_120VerifySimpleAtoiGoodIZNS_24NumbersTest_Atoenum_Test8TestBodyEvE9E_fullintS2_EEvT0_T_(i32 noundef -2147483648, i32 noundef -2147483648)
  call void @_ZN12_GLOBAL__N_120VerifySimpleAtoiGoodIZNS_24NumbersTest_Atoenum_Test8TestBodyEvE9E_biguintS2_EEvT0_T_(i32 noundef 0, i32 noundef 0)
  call void @_ZN12_GLOBAL__N_120VerifySimpleAtoiGoodIZNS_24NumbersTest_Atoenum_Test8TestBodyEvE9E_biguintS2_EEvT0_T_(i32 noundef 1, i32 noundef 1)
  call void @_ZN12_GLOBAL__N_120VerifySimpleAtoiGoodIZNS_24NumbersTest_Atoenum_Test8TestBodyEvE9E_biguintS2_EEvT0_T_(i32 noundef 2147483647, i32 noundef 2147483647)
  call void @_ZN12_GLOBAL__N_120VerifySimpleAtoiGoodIZNS_24NumbersTest_Atoenum_Test8TestBodyEvE9E_biguintS2_EEvT0_T_(i32 noundef -1, i32 noundef -1)
  ret void
}