; Function Attrs: mustprogress uwtable
define internal void @_ZN12_GLOBAL__N_124NumbersTest_Atoenum_Test8TestBodyEv(ptr nonnull readnone align 8 captures(none) %0) unnamed_addr #4 align 2 {
  tail call fastcc void @_ZN12_GLOBAL__N_120VerifySimpleAtoiGoodIZNS_24NumbersTest_Atoenum_Test8TestBodyEvE3E01S2_EEvT0_T_(i32 noundef 0, i32 noundef 0)
  tail call fastcc void @_ZN12_GLOBAL__N_120VerifySimpleAtoiGoodIZNS_24NumbersTest_Atoenum_Test8TestBodyEvE3E01S2_EEvT0_T_(i32 noundef 1, i32 noundef 1)
  tail call fastcc void @_ZN12_GLOBAL__N_120VerifySimpleAtoiGoodIZNS_24NumbersTest_Atoenum_Test8TestBodyEvE5E_101S2_EEvT0_T_(i32 noundef -1, i32 noundef -1)
  tail call fastcc void @_ZN12_GLOBAL__N_120VerifySimpleAtoiGoodIZNS_24NumbersTest_Atoenum_Test8TestBodyEvE5E_101S2_EEvT0_T_(i32 noundef 0, i32 noundef 0)
  tail call fastcc void @_ZN12_GLOBAL__N_120VerifySimpleAtoiGoodIZNS_24NumbersTest_Atoenum_Test8TestBodyEvE5E_101S2_EEvT0_T_(i32 noundef 1, i32 noundef 1)
  tail call fastcc void @_ZN12_GLOBAL__N_120VerifySimpleAtoiGoodIZNS_24NumbersTest_Atoenum_Test8TestBodyEvE8E_bigintS2_EEvT0_T_(i32 noundef 0, i32 noundef 0)
  tail call fastcc void @_ZN12_GLOBAL__N_120VerifySimpleAtoiGoodIZNS_24NumbersTest_Atoenum_Test8TestBodyEvE8E_bigintS2_EEvT0_T_(i32 noundef 1, i32 noundef 1)
  tail call fastcc void @_ZN12_GLOBAL__N_120VerifySimpleAtoiGoodIZNS_24NumbersTest_Atoenum_Test8TestBodyEvE8E_bigintS2_EEvT0_T_(i32 noundef 2147483647, i32 noundef 2147483647)
  tail call fastcc void @_ZN12_GLOBAL__N_120VerifySimpleAtoiGoodIZNS_24NumbersTest_Atoenum_Test8TestBodyEvE9E_fullintS2_EEvT0_T_(i32 noundef 0, i32 noundef 0)
  tail call fastcc void @_ZN12_GLOBAL__N_120VerifySimpleAtoiGoodIZNS_24NumbersTest_Atoenum_Test8TestBodyEvE9E_fullintS2_EEvT0_T_(i32 noundef 1, i32 noundef 1)
  tail call fastcc void @_ZN12_GLOBAL__N_120VerifySimpleAtoiGoodIZNS_24NumbersTest_Atoenum_Test8TestBodyEvE9E_fullintS2_EEvT0_T_(i32 noundef 2147483647, i32 noundef 2147483647)
  tail call fastcc void @_ZN12_GLOBAL__N_120VerifySimpleAtoiGoodIZNS_24NumbersTest_Atoenum_Test8TestBodyEvE9E_fullintS2_EEvT0_T_(i32 noundef -2147483648, i32 noundef -2147483648)
  tail call fastcc void @_ZN12_GLOBAL__N_120VerifySimpleAtoiGoodIZNS_24NumbersTest_Atoenum_Test8TestBodyEvE9E_biguintS2_EEvT0_T_(i32 noundef 0, i32 noundef 0)
  tail call fastcc void @_ZN12_GLOBAL__N_120VerifySimpleAtoiGoodIZNS_24NumbersTest_Atoenum_Test8TestBodyEvE9E_biguintS2_EEvT0_T_(i32 noundef 1, i32 noundef 1)
  tail call fastcc void @_ZN12_GLOBAL__N_120VerifySimpleAtoiGoodIZNS_24NumbersTest_Atoenum_Test8TestBodyEvE9E_biguintS2_EEvT0_T_(i32 noundef 2147483647, i32 noundef 2147483647)
  tail call fastcc void @_ZN12_GLOBAL__N_120VerifySimpleAtoiGoodIZNS_24NumbersTest_Atoenum_Test8TestBodyEvE9E_biguintS2_EEvT0_T_(i32 noundef -1, i32 noundef -1)
  ret void
}